; Function Attrs: mustprogress uwtable
define dso_local noundef zeroext i1 @_ZN16cmListFileParser9ParseFileEPKc(ptr noundef nonnull align 8 dereferenceable(124) %0, ptr noundef %1) local_unnamed_addr #3 align 2 personality ptr @__gxx_personality_v0 {
  %3 = alloca i32, align 4
  %4 = alloca %"class.std::__cxx11::basic_string", align 8
  %5 = alloca %"class.std::allocator", align 1
  %6 = alloca %"class.std::__cxx11::basic_string", align 8
  %7 = alloca %"class.std::allocator", align 1
  %8 = alloca %"class.std::__cxx11::basic_string", align 8
  %9 = alloca %"class.std::allocator", align 1
  %10 = getelementptr inbounds i8, ptr %0, i64 32
  store ptr %1, ptr %10, align 8
  %11 = getelementptr inbounds i8, ptr %0, i64 40
  %12 = load ptr, ptr %11, align 8
  %13 = call i32 @cmListFileLexer_SetFileName(ptr noundef %12, ptr noundef %1, ptr noundef nonnull %3)
  %.not = icmp eq i32 %13, 0
  br i1 %.not, label %14, label %25

14:                                               ; preds = %2
  call void @_ZNSaIcEC1Ev(ptr noundef nonnull align 1 dereferenceable(1) %5) #17
  %15 = invoke noundef ptr @_ZNSt7__cxx1112basic_stringIcSt11char_traitsIcESaIcEE13_M_local_dataEv(ptr noundef nonnull align 8 dereferenceable(32) %4)
          to label %.noexc unwind label %21

.noexc:                                           ; preds = %14
  invoke void @_ZNSt7__cxx1112basic_stringIcSt11char_traitsIcESaIcEE12_Alloc_hiderC1EPcRKS3_(ptr noundef nonnull align 8 dereferenceable(8) %4, ptr noundef %15, ptr noundef nonnull align 1 dereferenceable(1) %5)
          to label %.noexc18 unwind label %21

.noexc18:                                         ; preds = %.noexc
  invoke void @_ZNSt7__cxx1112basic_stringIcSt11char_traitsIcESaIcEE12_M_constructIPKcEEvT_S8_St20forward_iterator_tag(ptr noundef nonnull align 8 dereferenceable(32) %4, ptr noundef nonnull @.str, ptr noundef nonnull getelementptr inbounds ([42 x i8], ptr @.str, i64 0, i64 41))
          to label %_ZNSt7__cxx1112basic_stringIcSt11char_traitsIcESaIcEEC2IS3_EEPKcRKS3_.exit unwind label %16

16:                                               ; preds = %.noexc18
  %17 = landingpad { ptr, i32 }
          cleanup
  call void @_ZNSaIcED2Ev(ptr noundef nonnull align 1 dereferenceable(1) %4) #17
  br label %.body

_ZNSt7__cxx1112basic_stringIcSt11char_traitsIcESaIcEEC2IS3_EEPKcRKS3_.exit: ; preds = %.noexc18
  %18 = getelementptr inbounds i8, ptr %0, i64 24
  %19 = load ptr, ptr %18, align 8
  %20 = getelementptr inbounds i8, ptr %0, i64 8
  invoke void @_ZNK11cmMessenger12IssueMessageE11MessageTypeRKNSt7__cxx1112basic_stringIcSt11char_traitsIcESaIcEEERK19cmListFileBacktrace(ptr noundef nonnull align 8 dereferenceable(64) %19, i32 noundef 2, ptr noundef nonnull align 8 dereferenceable(32) %4, ptr noundef nonnull align 8 dereferenceable(16) %20)
          to label %_ZNK16cmListFileParser18IssueFileOpenErrorERKNSt7__cxx1112basic_stringIcSt11char_traitsIcESaIcEEE.exit unwind label %23

_ZNK16cmListFileParser18IssueFileOpenErrorERKNSt7__cxx1112basic_stringIcSt11char_traitsIcESaIcEEE.exit: ; preds = %_ZNSt7__cxx1112basic_stringIcSt11char_traitsIcESaIcEEC2IS3_EEPKcRKS3_.exit
  call void @_ZNSt7__cxx1112basic_stringIcSt11char_traitsIcESaIcEED1Ev(ptr noundef nonnull align 8 dereferenceable(32) %4) #17
  call void @_ZNSaIcED1Ev(ptr noundef nonnull align 1 dereferenceable(1) %5) #17
  br label %58

21:                                               ; preds = %.noexc, %14
  %22 = landingpad { ptr, i32 }
          cleanup
  br label %.body

23:                                               ; preds = %_ZNSt7__cxx1112basic_stringIcSt11char_traitsIcESaIcEEC2IS3_EEPKcRKS3_.exit
  %24 = landingpad { ptr, i32 }
          cleanup
  call void @_ZNSt7__cxx1112basic_stringIcSt11char_traitsIcESaIcEED1Ev(ptr noundef nonnull align 8 dereferenceable(32) %4) #17
  br label %.body

25:                                               ; preds = %2
  %26 = load i32, ptr %3, align 4
  %27 = icmp eq i32 %26, 1
  br i1 %27, label %28, label %41

28:                                               ; preds = %25
  %29 = load ptr, ptr %11, align 8
  %30 = call i32 @cmListFileLexer_SetFileName(ptr noundef %29, ptr noundef null, ptr noundef null)
  call void @_ZNSaIcEC1Ev(ptr noundef nonnull align 1 dereferenceable(1) %7) #17
  %31 = invoke noundef ptr @_ZNSt7__cxx1112basic_stringIcSt11char_traitsIcESaIcEE13_M_local_dataEv(ptr noundef nonnull align 8 dereferenceable(32) %6)
          to label %.noexc20 unwind label %37

.noexc20:                                         ; preds = %28
  invoke void @_ZNSt7__cxx1112basic_stringIcSt11char_traitsIcESaIcEE12_Alloc_hiderC1EPcRKS3_(ptr noundef nonnull align 8 dereferenceable(8) %6, ptr noundef %31, ptr noundef nonnull align 1 dereferenceable(1) %7)
          to label %.noexc21 unwind label %37

.noexc21:                                         ; preds = %.noexc20
  invoke void @_ZNSt7__cxx1112basic_stringIcSt11char_traitsIcESaIcEE12_M_constructIPKcEEvT_S8_St20forward_iterator_tag(ptr noundef nonnull align 8 dereferenceable(32) %6, ptr noundef nonnull @.str.1, ptr noundef nonnull getelementptr inbounds ([56 x i8], ptr @.str.1, i64 0, i64 55))
          to label %_ZNSt7__cxx1112basic_stringIcSt11char_traitsIcESaIcEEC2IS3_EEPKcRKS3_.exit24 unwind label %32

32:                                               ; preds = %.noexc21
  %33 = landingpad { ptr, i32 }
          cleanup
  call void @_ZNSaIcED2Ev(ptr noundef nonnull align 1 dereferenceable(1) %6) #17
  br label %.body

_ZNSt7__cxx1112basic_stringIcSt11char_traitsIcESaIcEEC2IS3_EEPKcRKS3_.exit24: ; preds = %.noexc21
  %34 = getelementptr inbounds i8, ptr %0, i64 24
  %35 = load ptr, ptr %34, align 8
  %36 = getelementptr inbounds i8, ptr %0, i64 8
  invoke void @_ZNK11cmMessenger12IssueMessageE11MessageTypeRKNSt7__cxx1112basic_stringIcSt11char_traitsIcESaIcEEERK19cmListFileBacktrace(ptr noundef nonnull align 8 dereferenceable(64) %35, i32 noundef 2, ptr noundef nonnull align 8 dereferenceable(32) %6, ptr noundef nonnull align 8 dereferenceable(16) %36)
          to label %_ZNK16cmListFileParser18IssueFileOpenErrorERKNSt7__cxx1112basic_stringIcSt11char_traitsIcESaIcEEE.exit26 unwind label %39

_ZNK16cmListFileParser18IssueFileOpenErrorERKNSt7__cxx1112basic_stringIcSt11char_traitsIcESaIcEEE.exit26: ; preds = %_ZNSt7__cxx1112basic_stringIcSt11char_traitsIcESaIcEEC2IS3_EEPKcRKS3_.exit24
  call void @_ZNSt7__cxx1112basic_stringIcSt11char_traitsIcESaIcEED1Ev(ptr noundef nonnull align 8 dereferenceable(32) %6) #17
  call void @_ZNSaIcED1Ev(ptr noundef nonnull align 1 dereferenceable(1) %7) #17
  br label %58

37:                                               ; preds = %.noexc20, %28
  %38 = landingpad { ptr, i32 }
          cleanup
  br label %.body

39:                                               ; preds = %_ZNSt7__cxx1112basic_stringIcSt11char_traitsIcESaIcEEC2IS3_EEPKcRKS3_.exit24
  %40 = landingpad { ptr, i32 }
          cleanup
  call void @_ZNSt7__cxx1112basic_stringIcSt11char_traitsIcESaIcEED1Ev(ptr noundef nonnull align 8 dereferenceable(32) %6) #17
  br label %.body

41:                                               ; preds = %25
  %42 = and i32 %26, -3
  %or.cond.not = icmp eq i32 %42, 0
  br i1 %or.cond.not, label %56, label %43

43:                                               ; preds = %41
  %44 = load ptr, ptr %11, align 8
  %45 = call i32 @cmListFileLexer_SetFileName(ptr noundef %44, ptr noundef null, ptr noundef null)
  call void @_ZNSaIcEC1Ev(ptr noundef nonnull align 1 dereferenceable(1) %9) #17
  %46 = invoke noundef ptr @_ZNSt7__cxx1112basic_stringIcSt11char_traitsIcESaIcEE13_M_local_dataEv(ptr noundef nonnull align 8 dereferenceable(32) %8)
          to label %.noexc27 unwind label %52

.noexc27:                                         ; preds = %43
  invoke void @_ZNSt7__cxx1112basic_stringIcSt11char_traitsIcESaIcEE12_Alloc_hiderC1EPcRKS3_(ptr noundef nonnull align 8 dereferenceable(8) %8, ptr noundef %46, ptr noundef nonnull align 1 dereferenceable(1) %9)
          to label %.noexc28 unwind label %52

.noexc28:                                         ; preds = %.noexc27
  invoke void @_ZNSt7__cxx1112basic_stringIcSt11char_traitsIcESaIcEE12_M_constructIPKcEEvT_S8_St20forward_iterator_tag(ptr noundef nonnull align 8 dereferenceable(32) %8, ptr noundef nonnull @.str.2, ptr noundef nonnull getelementptr inbounds ([54 x i8], ptr @.str.2, i64 0, i64 53))
          to label %_ZNSt7__cxx1112basic_stringIcSt11char_traitsIcESaIcEEC2IS3_EEPKcRKS3_.exit31 unwind label %47

47:                                               ; preds = %.noexc28
  %48 = landingpad { ptr, i32 }
          cleanup
  call void @_ZNSaIcED2Ev(ptr noundef nonnull align 1 dereferenceable(1) %8) #17
  br label %.body

_ZNSt7__cxx1112basic_stringIcSt11char_traitsIcESaIcEEC2IS3_EEPKcRKS3_.exit31: ; preds = %.noexc28
  %49 = getelementptr inbounds i8, ptr %0, i64 24
  %50 = load ptr, ptr %49, align 8
  %51 = getelementptr inbounds i8, ptr %0, i64 8
  invoke void @_ZNK11cmMessenger12IssueMessageE11MessageTypeRKNSt7__cxx1112basic_stringIcSt11char_traitsIcESaIcEEERK19cmListFileBacktrace(ptr noundef nonnull align 8 dereferenceable(64) %50, i32 noundef 2, ptr noundef nonnull align 8 dereferenceable(32) %8, ptr noundef nonnull align 8 dereferenceable(16) %51)
          to label %_ZNK16cmListFileParser18IssueFileOpenErrorERKNSt7__cxx1112basic_stringIcSt11char_traitsIcESaIcEEE.exit33 unwind label %54

_ZNK16cmListFileParser18IssueFileOpenErrorERKNSt7__cxx1112basic_stringIcSt11char_traitsIcESaIcEEE.exit33: ; preds = %_ZNSt7__cxx1112basic_stringIcSt11char_traitsIcESaIcEEC2IS3_EEPKcRKS3_.exit31
  call void @_ZNSt7__cxx1112basic_stringIcSt11char_traitsIcESaIcEED1Ev(ptr noundef nonnull align 8 dereferenceable(32) %8) #17
  call void @_ZNSaIcED1Ev(ptr noundef nonnull align 1 dereferenceable(1) %9) #17
  br label %58

52:                                               ; preds = %.noexc27, %43
  %53 = landingpad { ptr, i32 }
          cleanup
  br label %.body

54:                                               ; preds = %_ZNSt7__cxx1112basic_stringIcSt11char_traitsIcESaIcEEC2IS3_EEPKcRKS3_.exit31
  %55 = landingpad { ptr, i32 }
          cleanup
  call void @_ZNSt7__cxx1112basic_stringIcSt11char_traitsIcESaIcEED1Ev(ptr noundef nonnull align 8 dereferenceable(32) %8) #17
  br label %.body

56:                                               ; preds = %41
  %57 = call noundef zeroext i1 @_ZN16cmListFileParser5ParseEv(ptr noundef nonnull align 8 dereferenceable(124) %0)
  br label %58

58:                                               ; preds = %56, %_ZNK16cmListFileParser18IssueFileOpenErrorERKNSt7__cxx1112basic_stringIcSt11char_traitsIcESaIcEEE.exit33, %_ZNK16cmListFileParser18IssueFileOpenErrorERKNSt7__cxx1112basic_stringIcSt11char_traitsIcESaIcEEE.exit26, %_ZNK16cmListFileParser18IssueFileOpenErrorERKNSt7__cxx1112basic_stringIcSt11char_traitsIcESaIcEEE.exit
  %.010 = phi i1 [ false, %_ZNK16cmListFileParser18IssueFileOpenErrorERKNSt7__cxx1112basic_stringIcSt11char_traitsIcESaIcEEE.exit26 ], [ false, %_ZNK16cmListFileParser18IssueFileOpenErrorERKNSt7__cxx1112basic_stringIcSt11char_traitsIcESaIcEEE.exit33 ], [ %57, %56 ], [ false, %_ZNK16cmListFileParser18IssueFileOpenErrorERKNSt7__cxx1112basic_stringIcSt11char_traitsIcESaIcEEE.exit ]
  ret i1 %.010

.body:                                            ; preds = %54, %47, %52, %39, %32, %37, %23, %16, %21
  %.sink = phi ptr [ %5, %21 ], [ %5, %16 ], [ %5, %23 ], [ %7, %37 ], [ %7, %32 ], [ %7, %39 ], [ %9, %52 ], [ %9, %47 ], [ %9, %54 ]
  %.pn15.pn = phi { ptr, i32 } [ %22, %21 ], [ %17, %16 ], [ %24, %23 ], [ %38, %37 ], [ %33, %32 ], [ %40, %39 ], [ %53, %52 ], [ %48, %47 ], [ %55, %54 ]
  call void @_ZNSaIcED1Ev(ptr noundef nonnull align 1 dereferenceable(1) %.sink) #17
  resume { ptr, i32 } %.pn15.pn
}